; Function Attrs: mustprogress uwtable
define internal fastcc void @_ZN6vectorIPN12_GLOBAL__N_19code_treeELb0EjE13expand_vectorEv(ptr nocapture noundef nonnull align 8 dereferenceable(8) %this) unnamed_addr #3 align 2 personality ptr @__gxx_personality_v0 {
entry:
  %ref.tmp = alloca %"class.std::__cxx11::basic_string", align 8
  %ref.tmp18 = alloca %"class.std::allocator.333", align 1
  %0 = load ptr, ptr %this, align 8
  %cmp = icmp eq ptr %0, null
  br i1 %cmp, label %if.then, label %if.else

if.then:                                          ; preds = %entry
  %call = tail call noalias noundef ptr @_ZN6memory8allocateEm(i64 noundef 24)
  store i32 2, ptr %call, align 4
  %incdec.ptr = getelementptr inbounds i8, ptr %call, i64 4
  store i32 0, ptr %incdec.ptr, align 4
  %incdec.ptr2 = getelementptr inbounds i8, ptr %call, i64 8
  store ptr %incdec.ptr2, ptr %this, align 8
  br label %if.end28

if.else:                                          ; preds = %entry
  %arrayidx = getelementptr inbounds i8, ptr %0, i64 -8
  %1 = load i32, ptr %arrayidx, align 4
  %mul9 = mul i32 %1, 3
  %add10 = add i32 %mul9, 1
  %shr = lshr i32 %add10, 1
  %mul12 = shl i32 %shr, 3
  %add13 = add i32 %mul12, 8
  %cmp15.not = icmp ugt i32 %shr, %1
  br i1 %cmp15.not, label %lor.lhs.false, label %if.then17

lor.lhs.false:                                    ; preds = %if.else
  %mul6 = shl i32 %1, 3
  %add7 = add i32 %mul6, 8
  %cmp16.not = icmp ugt i32 %add13, %add7
  br i1 %cmp16.not, label %if.end, label %if.then17

if.then17:                                        ; preds = %lor.lhs.false, %if.else
  %exception = tail call ptr @__cxa_allocate_exception(i64 40) #21
  call void @_ZNSaIcEC1Ev(ptr noundef nonnull align 1 dereferenceable(1) %ref.tmp18) #21
  invoke void @_ZNSt7__cxx1112basic_stringIcSt11char_traitsIcESaIcEEC2IS3_EEPKcRKS3_(ptr noundef nonnull align 8 dereferenceable(32) %ref.tmp, ptr noundef nonnull @.str, ptr noundef nonnull align 1 dereferenceable(1) %ref.tmp18)
          to label %invoke.cont unwind label %cleanup.action

invoke.cont:                                      ; preds = %if.then17
  store ptr getelementptr inbounds ({ [6 x ptr] }, ptr @_ZTV17default_exception, i64 0, i32 0, i64 2), ptr %exception, align 8
  %m_msg.i = getelementptr inbounds i8, ptr %exception, i64 8
  call void @_ZNSt7__cxx1112basic_stringIcSt11char_traitsIcESaIcEEC1EOS4_(ptr noundef nonnull align 8 dereferenceable(32) %m_msg.i, ptr noundef nonnull align 8 dereferenceable(32) %ref.tmp) #21
  invoke void @__cxa_throw(ptr nonnull %exception, ptr nonnull @_ZTI17default_exception, ptr nonnull @_ZN17default_exceptionD2Ev) #24
          to label %unreachable unwind label %ehcleanup

ehcleanup:                                        ; preds = %invoke.cont
  %2 = landingpad { ptr, i32 }
          cleanup
  call void @_ZNSt7__cxx1112basic_stringIcSt11char_traitsIcESaIcEED1Ev(ptr noundef nonnull align 8 dereferenceable(32) %ref.tmp) #21
  call void @_ZNSaIcED1Ev(ptr noundef nonnull align 1 dereferenceable(1) %ref.tmp18) #21
  br label %eh.resume

cleanup.action:                                   ; preds = %if.then17
  %3 = landingpad { ptr, i32 }
          cleanup
  call void @_ZNSaIcED1Ev(ptr noundef nonnull align 1 dereferenceable(1) %ref.tmp18) #21
  call void @__cxa_free_exception(ptr %exception) #21
  br label %eh.resume

if.end:                                           ; preds = %lor.lhs.false
  %conv24 = zext i32 %add13 to i64
  %call25 = tail call noalias noundef ptr @_ZN6memory10reallocateEPvm(ptr noundef nonnull %arrayidx, i64 noundef %conv24)
  %add.ptr26 = getelementptr inbounds i8, ptr %call25, i64 8
  store ptr %add.ptr26, ptr %this, align 8
  store i32 %shr, ptr %call25, align 4
  br label %if.end28

if.end28:                                         ; preds = %if.end, %if.then
  ret void

eh.resume:                                        ; preds = %ehcleanup, %cleanup.action
  %.pn15 = phi { ptr, i32 } [ %2, %ehcleanup ], [ %3, %cleanup.action ]
  resume { ptr, i32 } %.pn15

unreachable:                                      ; preds = %invoke.cont
  unreachable
}